target datalayout = "e-m:e-p270:32:32-p271:32:32-p272:64:64-i64:64-i128:128-f80:128-n8:16:32:64-S128"
target triple = "x86_64-pc-linux-gnu"

%struct.stack_st = type { i64, ptr, i64, i64, ptr }

; Function Attrs: nounwind uwtable
define hidden void @sk_free(ptr noundef %0) #0 {
  %2 = alloca ptr, align 8
  store ptr %0, ptr %2, align 8, !tbaa !10
  %3 = load ptr, ptr %2, align 8, !tbaa !10
  %4 = icmp eq ptr %3, null
  br i1 %4, label %5, label %6

5:                                                ; preds = %1
  br label %11

6:                                                ; preds = %1
  %7 = load ptr, ptr %2, align 8, !tbaa !10
  %8 = getelementptr inbounds nuw %struct.stack_st, ptr %7, i32 0, i32 1
  %9 = load ptr, ptr %8, align 8, !tbaa !12
  call void @free(ptr noundef %9) #9
  %10 = load ptr, ptr %2, align 8, !tbaa !10
  call void @free(ptr noundef %10) #9
  br label %11

11:                                               ; preds = %6, %5
  ret void
}

; Function Attrs: nounwind uwtable
define hidden ptr @sk_new(ptr noundef %0) #0 {
  %2 = alloca ptr, align 8
  %3 = alloca ptr, align 8
  %4 = alloca ptr, align 8
  %5 = alloca i32, align 4
  store ptr %0, ptr %3, align 8, !tbaa !6
  call void @llvm.lifetime.start.p0(i64 8, ptr %4) #9
  %6 = call noalias ptr @malloc(i64 noundef 40) #10
  store ptr %6, ptr %4, align 8, !tbaa !10
  %7 = load ptr, ptr %4, align 8, !tbaa !10
  %8 = icmp eq ptr %7, null
  br i1 %8, label %9, label %10

9:                                                ; preds = %1
  br label %30

10:                                               ; preds = %1
  %11 = load ptr, ptr %4, align 8, !tbaa !10
  call void @llvm.memset.p0.i64(ptr align 8 %11, i8 0, i64 40, i1 false)
  %12 = call noalias ptr @malloc(i64 noundef 32) #10
  %13 = load ptr, ptr %4, align 8, !tbaa !10
  %14 = getelementptr inbounds nuw %struct.stack_st, ptr %13, i32 0, i32 1
  store ptr %12, ptr %14, align 8, !tbaa !12
  %15 = load ptr, ptr %4, align 8, !tbaa !10
  %16 = getelementptr inbounds nuw %struct.stack_st, ptr %15, i32 0, i32 1
  %17 = load ptr, ptr %16, align 8, !tbaa !12
  %18 = icmp eq ptr %17, null
  br i1 %18, label %19, label %20

19:                                               ; preds = %10
  br label %30

20:                                               ; preds = %10
  %21 = load ptr, ptr %4, align 8, !tbaa !10
  %22 = getelementptr inbounds nuw %struct.stack_st, ptr %21, i32 0, i32 1
  %23 = load ptr, ptr %22, align 8, !tbaa !12
  call void @llvm.memset.p0.i64(ptr align 8 %23, i8 0, i64 32, i1 false)
  %24 = load ptr, ptr %3, align 8, !tbaa !6
  %25 = load ptr, ptr %4, align 8, !tbaa !10
  %26 = getelementptr inbounds nuw %struct.stack_st, ptr %25, i32 0, i32 4
  store ptr %24, ptr %26, align 8, !tbaa !15
  %27 = load ptr, ptr %4, align 8, !tbaa !10
  %28 = getelementptr inbounds nuw %struct.stack_st, ptr %27, i32 0, i32 3
  store i64 4, ptr %28, align 8, !tbaa !16
  %29 = load ptr, ptr %4, align 8, !tbaa !10
  store ptr %29, ptr %2, align 8
  store i32 1, ptr %5, align 4
  br label %32

30:                                               ; preds = %19, %9
  %31 = load ptr, ptr %4, align 8, !tbaa !10
  call void @free(ptr noundef %31) #9
  store ptr null, ptr %2, align 8
  store i32 1, ptr %5, align 4
  br label %32

32:                                               ; preds = %30, %20
  call void @llvm.lifetime.end.p0(i64 8, ptr %4) #9
  %33 = load ptr, ptr %2, align 8
  ret ptr %33
}

; Function Attrs: nounwind uwtable
define hidden ptr @sk_dup(ptr noundef %0) #0 {
  %2 = alloca ptr, align 8
  %3 = alloca ptr, align 8
  %4 = alloca ptr, align 8
  %5 = alloca ptr, align 8
  %6 = alloca i32, align 4
  store ptr %0, ptr %3, align 8, !tbaa !10
  call void @llvm.lifetime.start.p0(i64 8, ptr %4) #9
  call void @llvm.lifetime.start.p0(i64 8, ptr %5) #9
  %7 = load ptr, ptr %3, align 8, !tbaa !10
  %8 = icmp eq ptr %7, null
  br i1 %8, label %9, label %10

9:                                                ; preds = %1
  store ptr null, ptr %2, align 8
  store i32 1, ptr %6, align 4
  br label %67

10:                                               ; preds = %1
  %11 = load ptr, ptr %3, align 8, !tbaa !10
  %12 = getelementptr inbounds nuw %struct.stack_st, ptr %11, i32 0, i32 4
  %13 = load ptr, ptr %12, align 8, !tbaa !15
  %14 = call ptr @sk_new(ptr noundef %13)
  store ptr %14, ptr %4, align 8, !tbaa !10
  %15 = load ptr, ptr %4, align 8, !tbaa !10
  %16 = icmp eq ptr %15, null
  br i1 %16, label %17, label %18

17:                                               ; preds = %10
  br label %65

18:                                               ; preds = %10
  %19 = load ptr, ptr %4, align 8, !tbaa !10
  %20 = getelementptr inbounds nuw %struct.stack_st, ptr %19, i32 0, i32 1
  %21 = load ptr, ptr %20, align 8, !tbaa !12
  %22 = load ptr, ptr %3, align 8, !tbaa !10
  %23 = getelementptr inbounds nuw %struct.stack_st, ptr %22, i32 0, i32 3
  %24 = load i64, ptr %23, align 8, !tbaa !16
  %25 = mul i64 8, %24
  %26 = call ptr @realloc(ptr noundef %21, i64 noundef %25) #11
  store ptr %26, ptr %5, align 8, !tbaa !6
  %27 = load ptr, ptr %5, align 8, !tbaa !6
  %28 = icmp eq ptr %27, null
  br i1 %28, label %29, label %30

29:                                               ; preds = %18
  br label %65

30:                                               ; preds = %18
  %31 = load ptr, ptr %5, align 8, !tbaa !6
  %32 = load ptr, ptr %4, align 8, !tbaa !10
  %33 = getelementptr inbounds nuw %struct.stack_st, ptr %32, i32 0, i32 1
  store ptr %31, ptr %33, align 8, !tbaa !12
  %34 = load ptr, ptr %3, align 8, !tbaa !10
  %35 = getelementptr inbounds nuw %struct.stack_st, ptr %34, i32 0, i32 0
  %36 = load i64, ptr %35, align 8, !tbaa !17
  %37 = load ptr, ptr %4, align 8, !tbaa !10
  %38 = getelementptr inbounds nuw %struct.stack_st, ptr %37, i32 0, i32 0
  store i64 %36, ptr %38, align 8, !tbaa !17
  %39 = load ptr, ptr %4, align 8, !tbaa !10
  %40 = getelementptr inbounds nuw %struct.stack_st, ptr %39, i32 0, i32 1
  %41 = load ptr, ptr %40, align 8, !tbaa !12
  %42 = load ptr, ptr %3, align 8, !tbaa !10
  %43 = getelementptr inbounds nuw %struct.stack_st, ptr %42, i32 0, i32 1
  %44 = load ptr, ptr %43, align 8, !tbaa !12
  %45 = load ptr, ptr %3, align 8, !tbaa !10
  %46 = getelementptr inbounds nuw %struct.stack_st, ptr %45, i32 0, i32 0
  %47 = load i64, ptr %46, align 8, !tbaa !17
  %48 = mul i64 8, %47
  call void @llvm.memcpy.p0.p0.i64(ptr align 8 %41, ptr align 8 %44, i64 %48, i1 false)
  %49 = load ptr, ptr %3, align 8, !tbaa !10
  %50 = getelementptr inbounds nuw %struct.stack_st, ptr %49, i32 0, i32 2
  %51 = load i64, ptr %50, align 8, !tbaa !18
  %52 = load ptr, ptr %4, align 8, !tbaa !10
  %53 = getelementptr inbounds nuw %struct.stack_st, ptr %52, i32 0, i32 2
  store i64 %51, ptr %53, align 8, !tbaa !18
  %54 = load ptr, ptr %3, align 8, !tbaa !10
  %55 = getelementptr inbounds nuw %struct.stack_st, ptr %54, i32 0, i32 3
  %56 = load i64, ptr %55, align 8, !tbaa !16
  %57 = load ptr, ptr %4, align 8, !tbaa !10
  %58 = getelementptr inbounds nuw %struct.stack_st, ptr %57, i32 0, i32 3
  store i64 %56, ptr %58, align 8, !tbaa !16
  %59 = load ptr, ptr %3, align 8, !tbaa !10
  %60 = getelementptr inbounds nuw %struct.stack_st, ptr %59, i32 0, i32 4
  %61 = load ptr, ptr %60, align 8, !tbaa !15
  %62 = load ptr, ptr %4, align 8, !tbaa !10
  %63 = getelementptr inbounds nuw %struct.stack_st, ptr %62, i32 0, i32 4
  store ptr %61, ptr %63, align 8, !tbaa !15
  %64 = load ptr, ptr %4, align 8, !tbaa !10
  store ptr %64, ptr %2, align 8
  store i32 1, ptr %6, align 4
  br label %67

65:                                               ; preds = %29, %17
  %66 = load ptr, ptr %4, align 8, !tbaa !10
  call void @sk_free(ptr noundef %66)
  store ptr null, ptr %2, align 8
  store i32 1, ptr %6, align 4
  br label %67

67:                                               ; preds = %65, %30, %9
  call void @llvm.lifetime.end.p0(i64 8, ptr %5) #9
  call void @llvm.lifetime.end.p0(i64 8, ptr %4) #9
  %68 = load ptr, ptr %2, align 8
  ret ptr %68
}