; Function Attrs: mustprogress nounwind willreturn uwtable
define hidden noalias noundef ptr @sk_dup(ptr noundef readonly captures(address_is_null) %0) local_unnamed_addr #6 {
  %2 = icmp eq ptr %0, null
  br i1 %2, label %26, label %3

3:                                                ; preds = %1
  %4 = getelementptr inbounds nuw i8, ptr %0, i64 32
  %5 = load ptr, ptr %4, align 8, !tbaa !12
  %calloc13.i = tail call dereferenceable_or_null(40) ptr @calloc(i64 1, i64 40)
  %6 = icmp eq ptr %calloc13.i, null
  br i1 %6, label %.split, label %7

7:                                                ; preds = %3
  %calloc.i = tail call dereferenceable_or_null(32) ptr @calloc(i64 1, i64 32)
  %8 = getelementptr inbounds nuw i8, ptr %calloc13.i, i64 8
  store ptr %calloc.i, ptr %8, align 8, !tbaa !6
  %9 = icmp eq ptr %calloc.i, null
  br i1 %9, label %.split, label %10

.split:                                           ; preds = %3, %7
  tail call void @free(ptr noundef %calloc13.i) #17
  br label %26

10:                                               ; preds = %7
  %11 = getelementptr inbounds nuw i8, ptr %0, i64 24
  %12 = load i64, ptr %11, align 8, !tbaa !13
  %13 = shl i64 %12, 3
  %14 = tail call ptr @realloc(ptr noundef nonnull %calloc.i, i64 noundef %13) #18
  %15 = icmp eq ptr %14, null
  br i1 %15, label %sk_free.exit, label %16

sk_free.exit:                                     ; preds = %10
  tail call void @free(ptr noundef nonnull %calloc.i) #17
  tail call void @free(ptr noundef nonnull %calloc13.i) #17
  br label %26

16:                                               ; preds = %10
  %17 = getelementptr inbounds nuw i8, ptr %calloc13.i, i64 24
  %18 = getelementptr inbounds nuw i8, ptr %calloc13.i, i64 32
  store ptr %14, ptr %8, align 8, !tbaa !6
  %19 = load i64, ptr %0, align 8, !tbaa !14
  store i64 %19, ptr %calloc13.i, align 8, !tbaa !14
  %20 = getelementptr inbounds nuw i8, ptr %0, i64 8
  %21 = load ptr, ptr %20, align 8, !tbaa !6
  %22 = shl i64 %19, 3
  tail call void @llvm.memcpy.p0.p0.i64(ptr nonnull align 8 %14, ptr align 8 %21, i64 %22, i1 false)
  %23 = getelementptr inbounds nuw i8, ptr %0, i64 16
  %24 = load i64, ptr %23, align 8, !tbaa !15
  %25 = getelementptr inbounds nuw i8, ptr %calloc13.i, i64 16
  store i64 %24, ptr %25, align 8, !tbaa !15
  store i64 %12, ptr %17, align 8, !tbaa !13
  store ptr %5, ptr %18, align 8, !tbaa !12
  br label %26

26:                                               ; preds = %.split, %sk_free.exit, %1, %16
  %.0 = phi ptr [ %calloc13.i, %16 ], [ null, %1 ], [ null, %sk_free.exit ], [ null, %.split ]
  ret ptr %.0
}